; ModuleID = '15/1982.c'
source_filename = "15/1982.c"
target datalayout = "e-m:e-p270:32:32-p271:32:32-p272:64:64-i64:64-f80:128-n8:16:32:64-S128"
target triple = "x86_64-pc-linux-gnu"

@.str = private unnamed_addr constant [3 x i8] c"%d\00", align 1

; Function Attrs: noinline nounwind uwtable
define dso_local i32 @main() #0 {
  %1 = alloca i32, align 4
  %2 = alloca i32, align 4
  %3 = alloca i32, align 4
  %4 = alloca i32, align 4
  %5 = alloca i32, align 4
  %6 = alloca i32, align 4
  %7 = alloca i32, align 4
  %8 = alloca i32, align 4
  %9 = alloca i32, align 4
  %10 = alloca i32, align 4
  %11 = alloca i32, align 4
  %12 = alloca i32, align 4
  store i32 0, i32* %1, align 4
  store i32 0, i32* %10, align 4
  store i32 0, i32* %7, align 4
  %13 = call i32 (i8*, ...) @__isoc99_scanf(i8* getelementptr inbounds ([3 x i8], [3 x i8]* @.str, i64 0, i64 0), i32* %3)
  store i32 1, i32* %4, align 4
  br label %14

14:                                               ; preds = %39, %0
  %15 = load i32, i32* %4, align 4
  %16 = load i32, i32* %3, align 4
  %17 = load i32, i32* %3, align 4
  %18 = mul nsw i32 %16, %17
  %19 = icmp sle i32 %15, %18
  br i1 %19, label %20, label %42

20:                                               ; preds = %14
  %21 = call i32 (i8*, ...) @__isoc99_scanf(i8* getelementptr inbounds ([3 x i8], [3 x i8]* @.str, i64 0, i64 0), i32* %8)
  %22 = load i32, i32* %8, align 4
  %23 = icmp eq i32 %22, 0
  br i1 %23, label %24, label %27

24:                                               ; preds = %20
  %25 = load i32, i32* %10, align 4
  %26 = add nsw i32 %25, 1
  store i32 %26, i32* %10, align 4
  br label %27

27:                                               ; preds = %24, %20
  %28 = load i32, i32* %8, align 4
  %29 = icmp eq i32 %28, 255
  br i1 %29, label %30, label %38

30:                                               ; preds = %27
  %31 = load i32, i32* %10, align 4
  %32 = icmp ne i32 %31, 0
  br i1 %32, label %33, label %38

33:                                               ; preds = %30
  %34 = load i32, i32* %7, align 4
  %35 = icmp eq i32 %34, 0
  br i1 %35, label %36, label %38

36:                                               ; preds = %33
  %37 = load i32, i32* %10, align 4
  store i32 %37, i32* %7, align 4
  br label %38

38:                                               ; preds = %36, %33, %30, %27
  br label %39

39:                                               ; preds = %38
  %40 = load i32, i32* %4, align 4
  %41 = add nsw i32 %40, 1
  store i32 %41, i32* %4, align 4
  br label %14

42:                                               ; preds = %14
  %43 = load i32, i32* %10, align 4
  %44 = load i32, i32* %7, align 4
  %45 = mul nsw i32 2, %44
  %46 = sub nsw i32 %43, %45
  %47 = sdiv i32 %46, 2
  %48 = load i32, i32* %7, align 4
  %49 = sub nsw i32 %48, 2
  %50 = mul nsw i32 %47, %49
  store i32 %50, i32* %7, align 4
  %51 = load i32, i32* %7, align 4
  %52 = call i32 (i8*, ...) @printf(i8* getelementptr inbounds ([3 x i8], [3 x i8]* @.str, i64 0, i64 0), i32 %51)
  ret i32 0
}

declare dso_local i32 @__isoc99_scanf(i8*, ...) #1

declare dso_local i32 @printf(i8*, ...) #1


!llvm.module.flags = !{!0}
!llvm.ident = !{!1}

!0 = !{i32 1, !"wchar_size", i32 4}
!1 = !{!"clang version 10.0.0-4ubuntu1 "}
