; ModuleID = 'source-C-CXX/14/1982.c'
source_filename = "source-C-CXX/14/1982.c"
target datalayout = "e-m:e-p270:32:32-p271:32:32-p272:64:64-i64:64-f80:128-n8:16:32:64-S128"
target triple = "x86_64-pc-linux-gnu"

@.str = private unnamed_addr constant [3 x i8] c"%d\00", align 1

; Function Attrs: nofree nounwind sspstrong uwtable
define dso_local i32 @main() local_unnamed_addr #0 {
  %1 = alloca i32, align 4
  %2 = alloca i32, align 4
  %3 = bitcast i32* %1 to i8*
  call void @llvm.lifetime.start.p0i8(i64 4, i8* nonnull %3) #3
  %4 = bitcast i32* %2 to i8*
  call void @llvm.lifetime.start.p0i8(i64 4, i8* nonnull %4) #3
  %5 = call i32 (i8*, ...) @__isoc99_scanf(i8* getelementptr inbounds ([3 x i8], [3 x i8]* @.str, i64 0, i64 0), i32* nonnull %1)
  %6 = load i32, i32* %1, align 4, !tbaa !5
  %7 = mul nsw i32 %6, %6
  %8 = icmp eq i32 %7, 0
  br i1 %8, label %28, label %9

9:                                                ; preds = %0, %9
  %10 = phi i32 [ %24, %9 ], [ 1, %0 ]
  %11 = phi i32 [ %23, %9 ], [ 0, %0 ]
  %12 = phi i32 [ %17, %9 ], [ 0, %0 ]
  %13 = call i32 (i8*, ...) @__isoc99_scanf(i8* getelementptr inbounds ([3 x i8], [3 x i8]* @.str, i64 0, i64 0), i32* nonnull %2)
  %14 = load i32, i32* %2, align 4, !tbaa !5
  %15 = icmp eq i32 %14, 0
  %16 = zext i1 %15 to i32
  %17 = add nuw nsw i32 %12, %16
  %18 = icmp eq i32 %14, 255
  %19 = icmp ne i32 %17, 0
  %20 = select i1 %18, i1 %19, i1 false
  %21 = icmp eq i32 %11, 0
  %22 = select i1 %20, i1 %21, i1 false
  %23 = select i1 %22, i32 %17, i32 %11
  %24 = add nuw nsw i32 %10, 1
  %25 = load i32, i32* %1, align 4, !tbaa !5
  %26 = mul nsw i32 %25, %25
  %27 = icmp ult i32 %10, %26
  br i1 %27, label %9, label %28, !llvm.loop !9

28:                                               ; preds = %9, %0
  %29 = phi i32 [ 0, %0 ], [ %17, %9 ]
  %30 = phi i32 [ 0, %0 ], [ %23, %9 ]
  %31 = mul i32 %30, -2
  %32 = add i32 %31, %29
  %33 = sdiv i32 %32, 2
  %34 = add nsw i32 %30, -2
  %35 = mul nsw i32 %33, %34
  %36 = call i32 (i8*, ...) @printf(i8* nonnull dereferenceable(1) getelementptr inbounds ([3 x i8], [3 x i8]* @.str, i64 0, i64 0), i32 %35)
  call void @llvm.lifetime.end.p0i8(i64 4, i8* nonnull %4) #3
  call void @llvm.lifetime.end.p0i8(i64 4, i8* nonnull %3) #3
  ret i32 0
}

; Function Attrs: argmemonly mustprogress nofree nosync nounwind willreturn
declare void @llvm.lifetime.start.p0i8(i64 immarg, i8* nocapture) #1

; Function Attrs: nofree nounwind
declare noundef i32 @__isoc99_scanf(i8* nocapture noundef readonly, ...) local_unnamed_addr #2

; Function Attrs: nofree nounwind
declare noundef i32 @printf(i8* nocapture noundef readonly, ...) local_unnamed_addr #2

; Function Attrs: argmemonly mustprogress nofree nosync nounwind willreturn
declare void @llvm.lifetime.end.p0i8(i64 immarg, i8* nocapture) #1


!llvm.module.flags = !{!0, !1, !2, !3}
!llvm.ident = !{!4}

!0 = !{i32 1, !"wchar_size", i32 4}
!1 = !{i32 7, !"PIC Level", i32 2}
!2 = !{i32 7, !"PIE Level", i32 2}
!3 = !{i32 7, !"uwtable", i32 1}
!4 = !{!"clang version 13.0.0"}
!5 = !{!6, !6, i64 0}
!6 = !{!"int", !7, i64 0}
!7 = !{!"omnipotent char", !8, i64 0}
!8 = !{!"Simple C/C++ TBAA"}
!9 = distinct !{!9, !10}
!10 = !{!"llvm.loop.mustprogress"}
